; Function Attrs: nofree norecurse nosync nounwind memory(argmem: readwrite) uwtable
define internal void @biweight_h264_pixels2_8_c(ptr noundef captures(none) %0, ptr noundef readonly captures(none) %1, i64 noundef %2, i32 noundef %3, i32 noundef %4, i32 noundef %5, i32 noundef %6, i32 noundef %7) #1 {
  %9 = add nsw i32 %7, 1
  %10 = or i32 %9, 1
  %11 = shl i32 %10, %4
  %12 = icmp sgt i32 %3, 0
  br i1 %12, label %.lver.check, label %._crit_edge

.lver.check:                                      ; preds = %8
  %13 = add nsw i32 %4, 1
  %ident.check.not = icmp eq i64 %2, 1
  br i1 %ident.check.not, label %.ph, label %.ph.lver.orig

.ph.lver.orig:                                    ; preds = %.lver.check, %.ph.lver.orig
  %.033.lver.orig = phi ptr [ %40, %.ph.lver.orig ], [ %1, %.lver.check ]
  %.02632.lver.orig = phi ptr [ %39, %.ph.lver.orig ], [ %0, %.lver.check ]
  %.02731.lver.orig = phi i32 [ %38, %.ph.lver.orig ], [ 0, %.lver.check ]
  %14 = load i8, ptr %.033.lver.orig, align 1, !tbaa !42
  %15 = zext i8 %14 to i32
  %16 = mul nsw i32 %6, %15
  %17 = load i8, ptr %.02632.lver.orig, align 1, !tbaa !42
  %18 = zext i8 %17 to i32
  %19 = mul nsw i32 %5, %18
  %20 = add i32 %16, %11
  %21 = add i32 %20, %19
  %22 = ashr i32 %21, %13
  %.not.i.lver.orig = icmp ult i32 %22, 256
  %isnotneg.i.lver.orig = icmp sgt i32 %22, -1
  %23 = sext i1 %isnotneg.i.lver.orig to i8
  %24 = trunc nuw i32 %22 to i8
  %.0.i.lver.orig = select i1 %.not.i.lver.orig, i8 %24, i8 %23
  store i8 %.0.i.lver.orig, ptr %.02632.lver.orig, align 1, !tbaa !42
  %25 = getelementptr inbounds nuw i8, ptr %.033.lver.orig, i64 1
  %26 = load i8, ptr %25, align 1, !tbaa !42
  %27 = zext i8 %26 to i32
  %28 = mul nsw i32 %6, %27
  %29 = getelementptr inbounds nuw i8, ptr %.02632.lver.orig, i64 1
  %30 = load i8, ptr %29, align 1, !tbaa !42
  %31 = zext i8 %30 to i32
  %32 = mul nsw i32 %5, %31
  %33 = add i32 %28, %11
  %34 = add i32 %33, %32
  %35 = ashr i32 %34, %13
  %.not.i28.lver.orig = icmp ult i32 %35, 256
  %isnotneg.i29.lver.orig = icmp sgt i32 %35, -1
  %36 = sext i1 %isnotneg.i29.lver.orig to i8
  %37 = trunc nuw i32 %35 to i8
  %.0.i30.lver.orig = select i1 %.not.i28.lver.orig, i8 %37, i8 %36
  store i8 %.0.i30.lver.orig, ptr %29, align 1, !tbaa !42
  %38 = add nuw nsw i32 %.02731.lver.orig, 1
  %39 = getelementptr inbounds i8, ptr %.02632.lver.orig, i64 %2
  %40 = getelementptr inbounds i8, ptr %.033.lver.orig, i64 %2
  %exitcond.not.lver.orig = icmp eq i32 %38, %3
  br i1 %exitcond.not.lver.orig, label %._crit_edge, label %.ph.lver.orig, !llvm.loop !108

.ph:                                              ; preds = %.lver.check
  %load_initial = load i8, ptr %0, align 1
  br label %41

41:                                               ; preds = %.ph, %41
  %store_forwarded = phi i8 [ %load_initial, %.ph ], [ %.0.i30, %41 ]
  %.033 = phi ptr [ %1, %.ph ], [ %67, %41 ]
  %.02632 = phi ptr [ %0, %.ph ], [ %66, %41 ]
  %.02731 = phi i32 [ 0, %.ph ], [ %65, %41 ]
  %42 = load i8, ptr %.033, align 1, !tbaa !42
  %43 = zext i8 %42 to i32
  %44 = mul nsw i32 %6, %43
  %45 = zext i8 %store_forwarded to i32
  %46 = mul nsw i32 %5, %45
  %47 = add i32 %44, %11
  %48 = add i32 %47, %46
  %49 = ashr i32 %48, %13
  %.not.i = icmp ult i32 %49, 256
  %isnotneg.i = icmp sgt i32 %49, -1
  %50 = sext i1 %isnotneg.i to i8
  %51 = trunc nuw i32 %49 to i8
  %.0.i = select i1 %.not.i, i8 %51, i8 %50
  store i8 %.0.i, ptr %.02632, align 1, !tbaa !42
  %52 = getelementptr inbounds nuw i8, ptr %.033, i64 1
  %53 = load i8, ptr %52, align 1, !tbaa !42
  %54 = zext i8 %53 to i32
  %55 = mul nsw i32 %6, %54
  %56 = getelementptr inbounds nuw i8, ptr %.02632, i64 1
  %57 = load i8, ptr %56, align 1, !tbaa !42
  %58 = zext i8 %57 to i32
  %59 = mul nsw i32 %5, %58
  %60 = add i32 %55, %11
  %61 = add i32 %60, %59
  %62 = ashr i32 %61, %13
  %.not.i28 = icmp ult i32 %62, 256
  %isnotneg.i29 = icmp sgt i32 %62, -1
  %63 = sext i1 %isnotneg.i29 to i8
  %64 = trunc nuw i32 %62 to i8
  %.0.i30 = select i1 %.not.i28, i8 %64, i8 %63
  store i8 %.0.i30, ptr %56, align 1, !tbaa !42
  %65 = add nuw nsw i32 %.02731, 1
  %66 = getelementptr inbounds nuw i8, ptr %.02632, i64 %2
  %67 = getelementptr inbounds nuw i8, ptr %.033, i64 %2
  %exitcond.not = icmp eq i32 %65, %3
  br i1 %exitcond.not, label %._crit_edge, label %41, !llvm.loop !108

._crit_edge:                                      ; preds = %.ph.lver.orig, %41, %8
  ret void
}